SF:D:\SRC\RTrace\rustscout-cli\src\main.rs
FN:15,_RNCNvXs0_Csk5VzwVGdzzd_13rustscout_cliNtB7_4ArgsNtNtCsath2SIfEcUb_12clap_builder6derive14FromArgMatches20from_arg_matches_mut0B7_
FN:19,_RNCNvXs0_Csk5VzwVGdzzd_13rustscout_cliNtB7_4ArgsNtNtCsath2SIfEcUb_12clap_builder6derive14FromArgMatches20from_arg_matches_muts_0B7_
FN:27,_RNCNvXs0_Csk5VzwVGdzzd_13rustscout_cliNtB7_4ArgsNtNtCsath2SIfEcUb_12clap_builder6derive14FromArgMatches20from_arg_matches_muts0_0B7_
FN:31,_RNCNvXs0_Csk5VzwVGdzzd_13rustscout_cliNtB7_4ArgsNtNtCsath2SIfEcUb_12clap_builder6derive14FromArgMatches20from_arg_matches_muts1_0B7_
FN:39,_RNCNvXs0_Csk5VzwVGdzzd_13rustscout_cliNtB7_4ArgsNtNtCsath2SIfEcUb_12clap_builder6derive14FromArgMatches20from_arg_matches_muts2_0B7_
FN:15,_RNCNvXs0_Csk5VzwVGdzzd_13rustscout_cliNtB7_4ArgsNtNtCsath2SIfEcUb_12clap_builder6derive14FromArgMatches27update_from_arg_matches_mut0B7_
FN:19,_RNCNvXs0_Csk5VzwVGdzzd_13rustscout_cliNtB7_4ArgsNtNtCsath2SIfEcUb_12clap_builder6derive14FromArgMatches27update_from_arg_matches_muts_0B7_
FN:27,_RNCNvXs0_Csk5VzwVGdzzd_13rustscout_cliNtB7_4ArgsNtNtCsath2SIfEcUb_12clap_builder6derive14FromArgMatches27update_from_arg_matches_muts0_0B7_
FN:31,_RNCNvXs0_Csk5VzwVGdzzd_13rustscout_cliNtB7_4ArgsNtNtCsath2SIfEcUb_12clap_builder6derive14FromArgMatches27update_from_arg_matches_muts1_0B7_
FN:39,_RNCNvXs0_Csk5VzwVGdzzd_13rustscout_cliNtB7_4ArgsNtNtCsath2SIfEcUb_12clap_builder6derive14FromArgMatches27update_from_arg_matches_muts2_0B7_
FN:46,_RNvCsk5VzwVGdzzd_13rustscout_cli12init_logging
FN:72,_RNvCsk5VzwVGdzzd_13rustscout_cli4main
FN:79,_RNCNvCsk5VzwVGdzzd_13rustscout_cli4main0B3_
FN:84,_RNCNCNvCsk5VzwVGdzzd_13rustscout_cli4main00B5_
FNDA:0,_RNCNvXs0_Csk5VzwVGdzzd_13rustscout_cliNtB7_4ArgsNtNtCsath2SIfEcUb_12clap_builder6derive14FromArgMatches20from_arg_matches_mut0B7_
FNDA:0,_RNCNvXs0_Csk5VzwVGdzzd_13rustscout_cliNtB7_4ArgsNtNtCsath2SIfEcUb_12clap_builder6derive14FromArgMatches20from_arg_matches_muts_0B7_
FNDA:0,_RNCNvXs0_Csk5VzwVGdzzd_13rustscout_cliNtB7_4ArgsNtNtCsath2SIfEcUb_12clap_builder6derive14FromArgMatches20from_arg_matches_muts0_0B7_
FNDA:0,_RNCNvXs0_Csk5VzwVGdzzd_13rustscout_cliNtB7_4ArgsNtNtCsath2SIfEcUb_12clap_builder6derive14FromArgMatches20from_arg_matches_muts1_0B7_
FNDA:0,_RNCNvXs0_Csk5VzwVGdzzd_13rustscout_cliNtB7_4ArgsNtNtCsath2SIfEcUb_12clap_builder6derive14FromArgMatches20from_arg_matches_muts2_0B7_
FNDA:0,_RNCNvXs0_Csk5VzwVGdzzd_13rustscout_cliNtB7_4ArgsNtNtCsath2SIfEcUb_12clap_builder6derive14FromArgMatches27update_from_arg_matches_mut0B7_
FNDA:0,_RNCNvXs0_Csk5VzwVGdzzd_13rustscout_cliNtB7_4ArgsNtNtCsath2SIfEcUb_12clap_builder6derive14FromArgMatches27update_from_arg_matches_muts_0B7_
FNDA:0,_RNCNvXs0_Csk5VzwVGdzzd_13rustscout_cliNtB7_4ArgsNtNtCsath2SIfEcUb_12clap_builder6derive14FromArgMatches27update_from_arg_matches_muts0_0B7_
FNDA:0,_RNCNvXs0_Csk5VzwVGdzzd_13rustscout_cliNtB7_4ArgsNtNtCsath2SIfEcUb_12clap_builder6derive14FromArgMatches27update_from_arg_matches_muts1_0B7_
FNDA:0,_RNCNvXs0_Csk5VzwVGdzzd_13rustscout_cliNtB7_4ArgsNtNtCsath2SIfEcUb_12clap_builder6derive14FromArgMatches27update_from_arg_matches_muts2_0B7_
FNDA:0,_RNvCsk5VzwVGdzzd_13rustscout_cli12init_logging
FNDA:0,_RNvCsk5VzwVGdzzd_13rustscout_cli4main
FNDA:0,_RNCNvCsk5VzwVGdzzd_13rustscout_cli4main0B3_
FNDA:0,_RNCNCNvCsk5VzwVGdzzd_13rustscout_cli4main00B5_
FNF:9
FNH:0
DA:15,0
DA:19,0
DA:27,0
DA:31,0
DA:39,0
DA:46,0
DA:47,0
DA:48,0
DA:49,0
DA:50,0
DA:51,0
DA:52,0
DA:53,0
DA:56,0
DA:57,0
DA:58,0
DA:59,0
DA:60,0
DA:61,0
DA:62,0
DA:63,0
DA:64,0
DA:65,0
DA:66,0
DA:67,0
DA:68,0
DA:69,0
DA:70,0
DA:72,0
DA:73,0
DA:76,0
DA:77,0
DA:79,0
DA:80,0
DA:81,0
DA:82,0
DA:83,0
DA:84,0
DA:85,0
DA:86,0
DA:87,0
DA:88,0
DA:89,0
DA:90,0
DA:94,0
DA:96,0
DA:99,0
DA:100,0
DA:101,0
DA:102,0
DA:103,0
DA:104,0
DA:106,0
DA:107,0
DA:109,0
DA:110,0
DA:111,0
DA:112,0
DA:113,0
DA:114,0
DA:115,0
DA:116,0
DA:117,0
DA:118,0
DA:119,0
DA:120,0
DA:121,0
DA:123,0
DA:124,0
DA:125,0
DA:126,0
DA:127,0
DA:128,0
DA:129,0
DA:130,0
DA:131,0
DA:132,0
DA:133,0
DA:134,0
DA:135,0
DA:136,0
DA:139,0
DA:140,0
DA:141,0
DA:142,0
DA:143,0
DA:146,0
DA:147,0
BRF:0
BRH:0
LF:91
LH:0
end_of_record
SF:D:\SRC\RTrace\rustscout\src\config.rs
FN:146,_RNCNvMNtCs58HO3RAVCkf_9rustscout6configNtB4_12SearchConfig9load_from0B6_
FN:125,_RNvNtCs58HO3RAVCkf_9rustscout6config20default_thread_count
FN:129,_RNvNtCs58HO3RAVCkf_9rustscout6config17default_log_level
FN:135,_RNvMNtCs58HO3RAVCkf_9rustscout6configNtB2_12SearchConfig4load
FN:140,_RNvMNtCs58HO3RAVCkf_9rustscout6configNtB2_12SearchConfig9load_from
FN:165,_RNvMNtCs58HO3RAVCkf_9rustscout6configNtB2_12SearchConfig14merge_with_cli
FN:200,_RNvNtNtCs8tyZ335scDE_9rustscout6config5testss_21test_load_config_file
FN:227,_RNvNtNtCs8tyZ335scDE_9rustscout6config5testss_19test_merge_with_cli
FN:259,_RNvNtNtCs8tyZ335scDE_9rustscout6config5testss_19test_default_values
FN:281,_RNvNtNtCs8tyZ335scDE_9rustscout6config5testss_19test_invalid_config
FN:298,_RNvNtNtCs8tyZ335scDE_9rustscout6config5testss_26test_load_nonexistent_file
FN:135,_RNvMNtCs8tyZ335scDE_9rustscout6configNtB2_12SearchConfig4load
FN:125,_RNvNtCs8tyZ335scDE_9rustscout6config20default_thread_count
FN:129,_RNvNtCs8tyZ335scDE_9rustscout6config17default_log_level
FN:140,_RNvMNtCs8tyZ335scDE_9rustscout6configNtB2_12SearchConfig9load_from
FN:165,_RNvMNtCs8tyZ335scDE_9rustscout6configNtB2_12SearchConfig14merge_with_cli
FN:146,_RNCNvMNtCs8tyZ335scDE_9rustscout6configNtB4_12SearchConfig9load_from0B6_
FNDA:0,_RNCNvMNtCs58HO3RAVCkf_9rustscout6configNtB4_12SearchConfig9load_from0B6_
FNDA:0,_RNvNtCs58HO3RAVCkf_9rustscout6config20default_thread_count
FNDA:0,_RNvNtCs58HO3RAVCkf_9rustscout6config17default_log_level
FNDA:0,_RNvMNtCs58HO3RAVCkf_9rustscout6configNtB2_12SearchConfig4load
FNDA:0,_RNvMNtCs58HO3RAVCkf_9rustscout6configNtB2_12SearchConfig9load_from
FNDA:0,_RNvMNtCs58HO3RAVCkf_9rustscout6configNtB2_12SearchConfig14merge_with_cli
FNDA:1,_RNvNtNtCs8tyZ335scDE_9rustscout6config5testss_21test_load_config_file
FNDA:1,_RNvNtNtCs8tyZ335scDE_9rustscout6config5testss_19test_merge_with_cli
FNDA:1,_RNvNtNtCs8tyZ335scDE_9rustscout6config5testss_19test_default_values
FNDA:1,_RNvNtNtCs8tyZ335scDE_9rustscout6config5testss_19test_invalid_config
FNDA:1,_RNvNtNtCs8tyZ335scDE_9rustscout6config5testss_26test_load_nonexistent_file
FNDA:0,_RNvMNtCs8tyZ335scDE_9rustscout6configNtB2_12SearchConfig4load
FNDA:2,_RNvNtCs8tyZ335scDE_9rustscout6config20default_thread_count
FNDA:2,_RNvNtCs8tyZ335scDE_9rustscout6config17default_log_level
FNDA:4,_RNvMNtCs8tyZ335scDE_9rustscout6configNtB2_12SearchConfig9load_from
FNDA:1,_RNvMNtCs8tyZ335scDE_9rustscout6configNtB2_12SearchConfig14merge_with_cli
FNDA:4,_RNCNvMNtCs8tyZ335scDE_9rustscout6configNtB4_12SearchConfig9load_from0B6_
FNF:11
FNH:10
DA:125,2
DA:126,2
DA:127,2
DA:129,2
DA:130,2
DA:131,2
DA:135,0
DA:136,0
DA:137,0
DA:140,4
DA:141,4
DA:142,4
DA:143,4
DA:144,4
DA:145,4
DA:146,4
DA:147,4
DA:148,4
DA:149,4
DA:150,4
DA:151,4
DA:154,12
DA:155,12
DA:156,3
DA:157,9
DA:161,4
DA:162,4
DA:165,1
DA:166,1
DA:167,1
DA:168,1
DA:169,1
DA:170,1
DA:171,1
DA:172,1
DA:173,1
DA:174,0
DA:175,1
DA:176,1
DA:177,1
DA:178,1
DA:179,1
DA:180,1
DA:181,1
DA:182,1
DA:183,1
DA:184,1
DA:185,1
DA:186,1
DA:187,1
DA:188,1
DA:189,1
DA:200,1
DA:201,1
DA:202,1
DA:203,1
DA:204,1
DA:205,1
DA:206,1
DA:207,1
DA:208,1
DA:209,1
DA:210,1
DA:211,1
DA:212,1
DA:213,1
DA:214,1
DA:215,1
DA:216,1
DA:217,1
DA:218,1
DA:219,1
DA:220,1
DA:221,1
DA:222,1
DA:223,1
DA:224,1
DA:227,1
DA:228,1
DA:229,1
DA:230,1
DA:231,1
DA:232,1
DA:233,1
DA:234,1
DA:235,1
DA:236,1
DA:237,1
DA:238,1
DA:239,1
DA:240,1
DA:241,1
DA:242,1
DA:243,1
DA:244,1
DA:245,1
DA:246,1
DA:247,1
DA:248,1
DA:249,1
DA:250,1
DA:251,1
DA:252,1
DA:253,1
DA:254,1
DA:255,1
DA:256,1
DA:259,1
DA:260,1
DA:261,1
DA:262,1
DA:263,1
DA:264,1
DA:265,1
DA:266,1
DA:267,1
DA:268,1
DA:269,1
DA:270,1
DA:271,1
DA:272,1
DA:273,1
DA:274,1
DA:275,1
DA:276,1
DA:277,1
DA:278,1
DA:281,1
DA:282,1
DA:283,1
DA:284,1
DA:285,1
DA:286,1
DA:287,1
DA:288,1
DA:289,1
DA:290,1
DA:291,1
DA:292,1
DA:293,1
DA:294,1
DA:295,1
DA:298,1
DA:299,1
DA:300,1
DA:301,1
BRF:0
BRH:0
LF:147
LH:143
end_of_record
SF:D:\SRC\RTrace\rustscout\src\errors.rs
FN:97,_RNvMNtCs58HO3RAVCkf_9rustscout6errorsNtB2_11SearchError14file_not_found
FN:104,_RNvMNtCs58HO3RAVCkf_9rustscout6errorsNtB2_11SearchError17permission_denied
FN:118,_RNvMNtCs58HO3RAVCkf_9rustscout6errorsNtB2_11SearchError14file_too_large
FN:133,_RNvMNtCs58HO3RAVCkf_9rustscout6errorsNtB2_11SearchError16invalid_encoding
FN:140,_RNvMNtCs58HO3RAVCkf_9rustscout6errorsNtB2_11SearchError12is_not_found
FN:145,_RNvMNtCs58HO3RAVCkf_9rustscout6errorsNtB2_11SearchError20is_permission_denied
FN:150,_RNvMNtCs58HO3RAVCkf_9rustscout6errorsNtB2_11SearchError18is_invalid_pattern
FN:155,_RNvMNtCs58HO3RAVCkf_9rustscout6errorsNtB2_11SearchError17is_file_too_large
FN:160,_RNvMNtCs58HO3RAVCkf_9rustscout6errorsNtB2_11SearchError20is_thread_pool_error
FN:165,_RNvMNtCs58HO3RAVCkf_9rustscout6errorsNtB2_11SearchError19is_invalid_encoding
FN:111,_RINvMNtCs58HO3RAVCkf_9rustscout6errorsNtB3_11SearchError15invalid_patternNtNtCs8hkY3Xd22Y8_5alloc6string6StringEB5_
FN:111,_RINvMNtCs8tyZ335scDE_9rustscout6errorsNtB3_11SearchError15invalid_patternReEB5_
FN:126,_RINvMNtCs8tyZ335scDE_9rustscout6errorsNtB3_11SearchError17thread_pool_errorReEB5_
FN:97,_RNvMNtCs8tyZ335scDE_9rustscout6errorsNtB2_11SearchError14file_not_found
FN:104,_RNvMNtCs8tyZ335scDE_9rustscout6errorsNtB2_11SearchError17permission_denied
FN:118,_RNvMNtCs8tyZ335scDE_9rustscout6errorsNtB2_11SearchError14file_too_large
FN:133,_RNvMNtCs8tyZ335scDE_9rustscout6errorsNtB2_11SearchError16invalid_encoding
FN:140,_RNvMNtCs8tyZ335scDE_9rustscout6errorsNtB2_11SearchError12is_not_found
FN:145,_RNvMNtCs8tyZ335scDE_9rustscout6errorsNtB2_11SearchError20is_permission_denied
FN:150,_RNvMNtCs8tyZ335scDE_9rustscout6errorsNtB2_11SearchError18is_invalid_pattern
FN:155,_RNvMNtCs8tyZ335scDE_9rustscout6errorsNtB2_11SearchError17is_file_too_large
FN:160,_RNvMNtCs8tyZ335scDE_9rustscout6errorsNtB2_11SearchError20is_thread_pool_error
FN:165,_RNvMNtCs8tyZ335scDE_9rustscout6errorsNtB2_11SearchError19is_invalid_encoding
FN:176,_RNvNtNtCs8tyZ335scDE_9rustscout6errors5testss_19test_error_creation
FN:199,_RNvNtNtCs8tyZ335scDE_9rustscout6errors5testss_19test_error_messages
FNDA:0,_RNvMNtCs58HO3RAVCkf_9rustscout6errorsNtB2_11SearchError14file_not_found
FNDA:0,_RNvMNtCs58HO3RAVCkf_9rustscout6errorsNtB2_11SearchError17permission_denied
FNDA:0,_RNvMNtCs58HO3RAVCkf_9rustscout6errorsNtB2_11SearchError14file_too_large
FNDA:0,_RNvMNtCs58HO3RAVCkf_9rustscout6errorsNtB2_11SearchError16invalid_encoding
FNDA:0,_RNvMNtCs58HO3RAVCkf_9rustscout6errorsNtB2_11SearchError12is_not_found
FNDA:0,_RNvMNtCs58HO3RAVCkf_9rustscout6errorsNtB2_11SearchError20is_permission_denied
FNDA:0,_RNvMNtCs58HO3RAVCkf_9rustscout6errorsNtB2_11SearchError18is_invalid_pattern
FNDA:0,_RNvMNtCs58HO3RAVCkf_9rustscout6errorsNtB2_11SearchError17is_file_too_large
FNDA:0,_RNvMNtCs58HO3RAVCkf_9rustscout6errorsNtB2_11SearchError20is_thread_pool_error
FNDA:0,_RNvMNtCs58HO3RAVCkf_9rustscout6errorsNtB2_11SearchError19is_invalid_encoding
FNDA:0,_RINvMNtCs58HO3RAVCkf_9rustscout6errorsNtB3_11SearchError15invalid_patternNtNtCs8hkY3Xd22Y8_5alloc6string6StringEB5_
FNDA:2,_RINvMNtCs8tyZ335scDE_9rustscout6errorsNtB3_11SearchError15invalid_patternReEB5_
FNDA:2,_RINvMNtCs8tyZ335scDE_9rustscout6errorsNtB3_11SearchError17thread_pool_errorReEB5_
FNDA:2,_RNvMNtCs8tyZ335scDE_9rustscout6errorsNtB2_11SearchError14file_not_found
FNDA:2,_RNvMNtCs8tyZ335scDE_9rustscout6errorsNtB2_11SearchError17permission_denied
FNDA:2,_RNvMNtCs8tyZ335scDE_9rustscout6errorsNtB2_11SearchError14file_too_large
FNDA:2,_RNvMNtCs8tyZ335scDE_9rustscout6errorsNtB2_11SearchError16invalid_encoding
FNDA:1,_RNvMNtCs8tyZ335scDE_9rustscout6errorsNtB2_11SearchError12is_not_found
FNDA:1,_RNvMNtCs8tyZ335scDE_9rustscout6errorsNtB2_11SearchError20is_permission_denied
FNDA:1,_RNvMNtCs8tyZ335scDE_9rustscout6errorsNtB2_11SearchError18is_invalid_pattern
FNDA:1,_RNvMNtCs8tyZ335scDE_9rustscout6errorsNtB2_11SearchError17is_file_too_large
FNDA:1,_RNvMNtCs8tyZ335scDE_9rustscout6errorsNtB2_11SearchError20is_thread_pool_error
FNDA:1,_RNvMNtCs8tyZ335scDE_9rustscout6errorsNtB2_11SearchError19is_invalid_encoding
FNDA:1,_RNvNtNtCs8tyZ335scDE_9rustscout6errors5testss_19test_error_creation
FNDA:1,_RNvNtNtCs8tyZ335scDE_9rustscout6errors5testss_19test_error_messages
FNF:14
FNH:14
DA:97,2
DA:98,2
DA:99,2
DA:100,2
DA:101,2
DA:104,2
DA:105,2
DA:106,2
DA:107,2
DA:108,2
DA:111,2
DA:112,2
DA:113,2
DA:114,2
DA:115,2
DA:118,2
DA:119,2
DA:120,2
DA:121,2
DA:122,2
DA:123,2
DA:126,2
DA:127,2
DA:128,2
DA:129,2
DA:130,2
DA:133,2
DA:134,2
DA:135,2
DA:136,2
DA:137,2
DA:140,1
DA:141,1
DA:142,1
DA:145,1
DA:146,1
DA:147,1
DA:150,1
DA:151,1
DA:152,1
DA:155,1
DA:156,1
DA:157,1
DA:160,1
DA:161,1
DA:162,1
DA:165,1
DA:166,1
DA:167,1
DA:176,1
DA:177,1
DA:178,1
DA:179,1
DA:180,1
DA:182,1
DA:183,1
DA:185,1
DA:186,1
DA:188,1
DA:189,1
DA:191,1
DA:192,1
DA:194,1
DA:195,1
DA:196,1
DA:199,1
DA:200,1
DA:201,1
DA:202,1
DA:203,1
DA:205,1
DA:206,1
DA:208,1
DA:209,1
DA:211,1
DA:212,1
DA:214,1
DA:215,1
DA:217,1
DA:218,1
DA:219,1
BRF:0
BRH:0
LF:81
LH:81
end_of_record
SF:D:\SRC\RTrace\rustscout\src\filters.rs
FN:85,_RNCNvNtCs58HO3RAVCkf_9rustscout7filters19has_valid_extension0B5_
FN:103,_RNCNvNtCs58HO3RAVCkf_9rustscout7filters13should_ignore0B5_
FN:127,_RNCNvNtCs58HO3RAVCkf_9rustscout7filters16is_likely_binary0B5_
FN:79,_RNvNtCs58HO3RAVCkf_9rustscout7filters19has_valid_extension
FN:94,_RNvNtCs58HO3RAVCkf_9rustscout7filters13should_ignore
FN:115,_RNvNtCs58HO3RAVCkf_9rustscout7filters16is_likely_binary
FN:134,_RNvNtCs58HO3RAVCkf_9rustscout7filters19should_include_file
FN:79,_RNvNtCs8tyZ335scDE_9rustscout7filters19has_valid_extension
FN:94,_RNvNtCs8tyZ335scDE_9rustscout7filters13should_ignore
FN:115,_RNvNtCs8tyZ335scDE_9rustscout7filters16is_likely_binary
FN:134,_RNvNtCs8tyZ335scDE_9rustscout7filters19should_include_file
FN:85,_RNCNvNtCs8tyZ335scDE_9rustscout7filters19has_valid_extension0B5_
FN:103,_RNCNvNtCs8tyZ335scDE_9rustscout7filters13should_ignore0B5_
FN:127,_RNCNvNtCs8tyZ335scDE_9rustscout7filters16is_likely_binary0B5_
FN:149,_RNvNtNtCs8tyZ335scDE_9rustscout7filters5testss_24test_has_valid_extension
FN:169,_RNvNtNtCs8tyZ335scDE_9rustscout7filters5testss_18test_should_ignore
FN:194,_RNvNtNtCs8tyZ335scDE_9rustscout7filters5testss_21test_is_likely_binary
FN:205,_RNvNtNtCs8tyZ335scDE_9rustscout7filters5testss_24test_should_include_file
FNDA:11,_RNCNvNtCs58HO3RAVCkf_9rustscout7filters19has_valid_extension0B5_
FNDA:10,_RNCNvNtCs58HO3RAVCkf_9rustscout7filters13should_ignore0B5_
FNDA:1377,_RNCNvNtCs58HO3RAVCkf_9rustscout7filters16is_likely_binary0B5_
FNDA:51,_RNvNtCs58HO3RAVCkf_9rustscout7filters19has_valid_extension
FNDA:41,_RNvNtCs58HO3RAVCkf_9rustscout7filters13should_ignore
FNDA:51,_RNvNtCs58HO3RAVCkf_9rustscout7filters16is_likely_binary
FNDA:51,_RNvNtCs58HO3RAVCkf_9rustscout7filters19should_include_file
FNDA:9,_RNvNtCs8tyZ335scDE_9rustscout7filters19has_valid_extension
FNDA:14,_RNvNtCs8tyZ335scDE_9rustscout7filters13should_ignore
FNDA:12,_RNvNtCs8tyZ335scDE_9rustscout7filters16is_likely_binary
FNDA:5,_RNvNtCs8tyZ335scDE_9rustscout7filters19should_include_file
FNDA:7,_RNCNvNtCs8tyZ335scDE_9rustscout7filters19has_valid_extension0B5_
FNDA:35,_RNCNvNtCs8tyZ335scDE_9rustscout7filters13should_ignore0B5_
FNDA:196,_RNCNvNtCs8tyZ335scDE_9rustscout7filters16is_likely_binary0B5_
FNDA:1,_RNvNtNtCs8tyZ335scDE_9rustscout7filters5testss_24test_has_valid_extension
FNDA:1,_RNvNtNtCs8tyZ335scDE_9rustscout7filters5testss_18test_should_ignore
FNDA:1,_RNvNtNtCs8tyZ335scDE_9rustscout7filters5testss_21test_is_likely_binary
FNDA:1,_RNvNtNtCs8tyZ335scDE_9rustscout7filters5testss_24test_should_include_file
FNF:11
FNH:11
DA:79,60
DA:80,60
DA:81,41
DA:82,19
DA:83,19
DA:84,18
DA:85,18
DA:86,0
DA:87,1
DA:88,1
DA:91,60
DA:94,55
DA:95,55
DA:96,55
DA:97,55
DA:98,55
DA:99,0
DA:100,55
DA:101,55
DA:102,55
DA:103,55
DA:104,45
DA:106,45
DA:107,45
DA:109,0
DA:111,55
DA:112,55
DA:115,63
DA:123,63
DA:124,62
DA:125,62
DA:126,62
DA:127,1573
DA:128,0
DA:129,1
DA:130,1
DA:131,63
DA:134,56
DA:135,56
DA:136,56
DA:137,56
DA:138,56
DA:139,56
DA:140,55
DA:141,44
DA:142,56
DA:149,1
DA:150,1
DA:151,1
DA:152,1
DA:154,1
DA:155,1
DA:157,1
DA:158,1
DA:160,1
DA:161,1
DA:163,1
DA:164,1
DA:165,1
DA:166,1
DA:169,1
DA:170,1
DA:171,1
DA:172,1
DA:173,1
DA:174,1
DA:175,1
DA:176,1
DA:177,1
DA:178,1
DA:179,1
DA:180,1
DA:181,1
DA:182,1
DA:183,1
DA:186,1
DA:187,1
DA:188,1
DA:189,1
DA:190,1
DA:191,1
DA:194,1
DA:195,1
DA:196,1
DA:197,1
DA:198,1
DA:199,1
DA:200,1
DA:201,1
DA:202,1
DA:205,1
DA:206,1
DA:207,1
DA:208,1
DA:209,1
DA:210,1
DA:211,1
DA:212,1
DA:213,1
DA:214,1
DA:217,1
DA:218,1
DA:219,1
DA:220,1
DA:221,1
DA:224,1
DA:225,1
DA:226,1
DA:227,1
DA:228,1
DA:231,1
DA:232,1
DA:233,1
DA:234,1
DA:235,1
DA:238,1
DA:239,1
DA:240,1
DA:241,1
DA:242,1
DA:243,1
BRF:0
BRH:0
LF:125
LH:121
end_of_record
SF:D:\SRC\RTrace\rustscout\src\results.rs
FN:128,_RNvMNtCs58HO3RAVCkf_9rustscout7resultsNtB2_12SearchResult3new
FN:133,_RNvMNtCs58HO3RAVCkf_9rustscout7resultsNtB2_12SearchResult15add_file_result
FN:143,_RNvMNtCs58HO3RAVCkf_9rustscout7resultsNtB2_12SearchResult5merge
FN:128,_RNvMNtCs8tyZ335scDE_9rustscout7resultsNtB2_12SearchResult3new
FN:133,_RNvMNtCs8tyZ335scDE_9rustscout7resultsNtB2_12SearchResult15add_file_result
FN:143,_RNvMNtCs8tyZ335scDE_9rustscout7resultsNtB2_12SearchResult5merge
FN:156,_RNvNtNtCs8tyZ335scDE_9rustscout7results5testss_19test_match_creation
FN:172,_RNvNtNtCs8tyZ335scDE_9rustscout7results5testss_25test_file_result_creation
FN:200,_RNvNtNtCs8tyZ335scDE_9rustscout7results5testss_22test_search_result_new
FN:209,_RNvNtNtCs8tyZ335scDE_9rustscout7results5testss_34test_search_result_add_file_result
FN:249,_RNvNtNtCs8tyZ335scDE_9rustscout7results5testss_24test_search_result_merge
FN:313,_RNvNtNtCs8tyZ335scDE_9rustscout7results5testss_30test_search_result_empty_merge
FN:301,_RNCNvNtNtCs8tyZ335scDE_9rustscout7results5testss_24test_search_result_merge0B7_
FN:305,_RNCNvNtNtCs8tyZ335scDE_9rustscout7results5testss_24test_search_result_merges_0B7_
FN:309,_RNCNvNtNtCs8tyZ335scDE_9rustscout7results5testss_24test_search_result_merges0_0B7_
FNDA:6,_RNvMNtCs58HO3RAVCkf_9rustscout7resultsNtB2_12SearchResult3new
FNDA:36,_RNvMNtCs58HO3RAVCkf_9rustscout7resultsNtB2_12SearchResult15add_file_result
FNDA:0,_RNvMNtCs58HO3RAVCkf_9rustscout7resultsNtB2_12SearchResult5merge
FNDA:6,_RNvMNtCs8tyZ335scDE_9rustscout7resultsNtB2_12SearchResult3new
FNDA:6,_RNvMNtCs8tyZ335scDE_9rustscout7resultsNtB2_12SearchResult15add_file_result
FNDA:2,_RNvMNtCs8tyZ335scDE_9rustscout7resultsNtB2_12SearchResult5merge
FNDA:1,_RNvNtNtCs8tyZ335scDE_9rustscout7results5testss_19test_match_creation
FNDA:1,_RNvNtNtCs8tyZ335scDE_9rustscout7results5testss_25test_file_result_creation
FNDA:1,_RNvNtNtCs8tyZ335scDE_9rustscout7results5testss_22test_search_result_new
FNDA:1,_RNvNtNtCs8tyZ335scDE_9rustscout7results5testss_34test_search_result_add_file_result
FNDA:1,_RNvNtNtCs8tyZ335scDE_9rustscout7results5testss_24test_search_result_merge
FNDA:1,_RNvNtNtCs8tyZ335scDE_9rustscout7results5testss_30test_search_result_empty_merge
FNDA:1,_RNCNvNtNtCs8tyZ335scDE_9rustscout7results5testss_24test_search_result_merge0B7_
FNDA:2,_RNCNvNtNtCs8tyZ335scDE_9rustscout7results5testss_24test_search_result_merges_0B7_
FNDA:3,_RNCNvNtNtCs8tyZ335scDE_9rustscout7results5testss_24test_search_result_merges0_0B7_
FNF:12
FNH:12
DA:128,12
DA:129,12
DA:130,12
DA:133,42
DA:134,42
DA:135,42
DA:136,40
DA:137,40
DA:138,40
DA:139,42
DA:140,42
DA:143,2
DA:144,2
DA:145,2
DA:146,2
DA:147,2
DA:148,2
DA:156,1
DA:157,1
DA:158,1
DA:159,1
DA:160,1
DA:161,1
DA:162,1
DA:163,1
DA:164,1
DA:165,1
DA:166,1
DA:167,1
DA:168,1
DA:169,1
DA:172,1
DA:173,1
DA:174,1
DA:175,1
DA:176,1
DA:177,1
DA:178,1
DA:179,1
DA:180,1
DA:181,1
DA:182,1
DA:183,1
DA:184,1
DA:185,1
DA:186,1
DA:187,1
DA:188,1
DA:189,1
DA:190,1
DA:191,1
DA:192,1
DA:193,1
DA:194,1
DA:195,1
DA:196,1
DA:197,1
DA:200,1
DA:201,1
DA:202,1
DA:203,1
DA:204,1
DA:205,1
DA:206,1
DA:209,1
DA:210,1
DA:211,1
DA:212,1
DA:213,1
DA:214,1
DA:215,1
DA:216,1
DA:217,1
DA:218,1
DA:219,1
DA:220,1
DA:221,1
DA:222,1
DA:223,1
DA:224,1
DA:225,1
DA:226,1
DA:227,1
DA:228,1
DA:229,1
DA:230,1
DA:231,1
DA:232,1
DA:233,1
DA:234,1
DA:237,1
DA:238,1
DA:239,1
DA:240,1
DA:241,1
DA:242,1
DA:243,1
DA:244,1
DA:245,1
DA:246,1
DA:249,1
DA:250,1
DA:251,1
DA:252,1
DA:253,1
DA:254,1
DA:255,1
DA:256,1
DA:257,1
DA:258,1
DA:259,1
DA:260,1
DA:261,1
DA:262,1
DA:263,1
DA:264,1
DA:265,1
DA:266,1
DA:267,1
DA:268,1
DA:269,1
DA:270,1
DA:271,1
DA:272,1
DA:273,1
DA:274,1
DA:275,1
DA:276,1
DA:277,1
DA:278,1
DA:279,1
DA:280,1
DA:281,1
DA:282,1
DA:283,1
DA:284,1
DA:285,1
DA:286,1
DA:287,1
DA:288,1
DA:289,1
DA:290,1
DA:291,1
DA:292,1
DA:293,1
DA:294,1
DA:295,1
DA:298,1
DA:299,1
DA:300,1
DA:301,1
DA:302,1
DA:303,1
DA:304,1
DA:305,2
DA:306,1
DA:307,1
DA:308,1
DA:309,3
DA:310,1
DA:313,1
DA:314,1
DA:315,1
DA:316,1
DA:317,1
DA:318,1
DA:319,1
DA:320,1
DA:321,1
DA:322,1
DA:323,1
DA:324,1
DA:325,1
DA:326,1
DA:327,1
DA:328,1
DA:329,1
DA:330,1
DA:331,1
DA:332,1
DA:333,1
DA:334,1
DA:335,1
DA:336,1
DA:337,1
DA:338,1
DA:339,1
BRF:0
BRH:0
LF:190
LH:190
end_of_record
SF:D:\SRC\RTrace\rustscout\src\search.rs
FN:126,_RNvNtCs58HO3RAVCkf_9rustscout6search17is_simple_pattern
FN:155,_RNvNtCs58HO3RAVCkf_9rustscout6search18search_file_simple
FN:218,_RNvNtCs58HO3RAVCkf_9rustscout6search17search_file_regex
FN:273,_RNvNtCs58HO3RAVCkf_9rustscout6search6search
FN:157,_RNCNvNtCs58HO3RAVCkf_9rustscout6search18search_file_simple0B5_
FN:220,_RNCNvNtCs58HO3RAVCkf_9rustscout6search17search_file_regex0B5_
FN:284,_RNCNvNtCs58HO3RAVCkf_9rustscout6search6search0B5_
FN:312,_RNCNvNtCs58HO3RAVCkf_9rustscout6search6searchs_0B5_
FN:312,_RNCNCNvNtCs58HO3RAVCkf_9rustscout6search6searchs_00B7_
FN:313,_RNCNvNtCs58HO3RAVCkf_9rustscout6search6searchs0_0B5_
FN:341,_RNCNvNtCs58HO3RAVCkf_9rustscout6search6searchs1_0B5_
FN:342,_RNCNvNtCs58HO3RAVCkf_9rustscout6search6searchs2_0B5_
FN:343,_RNCNvNtCs58HO3RAVCkf_9rustscout6search6searchs3_0B5_
FN:348,_RNCNvNtCs58HO3RAVCkf_9rustscout6search6searchs4_0B5_
FN:349,_RNCNvNtCs58HO3RAVCkf_9rustscout6search6searchs5_0B5_
FN:350,_RNCNvNtCs58HO3RAVCkf_9rustscout6search6searchs6_0B5_
FN:359,_RNCNvNtCs58HO3RAVCkf_9rustscout6search6searchs7_0B5_
FN:370,_RNCNvNtCs58HO3RAVCkf_9rustscout6search6searchs8_0B5_
FN:373,_RNCNCNvNtCs58HO3RAVCkf_9rustscout6search6searchs8_00B7_
FN:380,_RNCNCNvNtCs58HO3RAVCkf_9rustscout6search6searchs8_0s_0B7_
FN:381,_RNCNCNvNtCs58HO3RAVCkf_9rustscout6search6searchs8_0s0_0B7_
FN:389,_RNCNvNtCs58HO3RAVCkf_9rustscout6search6searchs9_0B5_
FN:126,_RNvNtCs8tyZ335scDE_9rustscout6search17is_simple_pattern
FN:155,_RNvNtCs8tyZ335scDE_9rustscout6search18search_file_simple
FN:157,_RNCNvNtCs8tyZ335scDE_9rustscout6search18search_file_simple0B5_
FN:218,_RNvNtCs8tyZ335scDE_9rustscout6search17search_file_regex
FN:220,_RNCNvNtCs8tyZ335scDE_9rustscout6search17search_file_regex0B5_
FN:273,_RNvNtCs8tyZ335scDE_9rustscout6search6search
FN:284,_RNCNvNtCs8tyZ335scDE_9rustscout6search6search0B5_
FN:312,_RNCNvNtCs8tyZ335scDE_9rustscout6search6searchs_0B5_
FN:312,_RNCNCNvNtCs8tyZ335scDE_9rustscout6search6searchs_00B7_
FN:313,_RNCNvNtCs8tyZ335scDE_9rustscout6search6searchs0_0B5_
FN:341,_RNCNvNtCs8tyZ335scDE_9rustscout6search6searchs1_0B5_
FN:342,_RNCNvNtCs8tyZ335scDE_9rustscout6search6searchs2_0B5_
FN:343,_RNCNvNtCs8tyZ335scDE_9rustscout6search6searchs3_0B5_
FN:348,_RNCNvNtCs8tyZ335scDE_9rustscout6search6searchs4_0B5_
FN:349,_RNCNvNtCs8tyZ335scDE_9rustscout6search6searchs5_0B5_
FN:350,_RNCNvNtCs8tyZ335scDE_9rustscout6search6searchs6_0B5_
FN:359,_RNCNvNtCs8tyZ335scDE_9rustscout6search6searchs7_0B5_
FN:370,_RNCNvNtCs8tyZ335scDE_9rustscout6search6searchs8_0B5_
FN:373,_RNCNCNvNtCs8tyZ335scDE_9rustscout6search6searchs8_00B7_
FN:380,_RNCNCNvNtCs8tyZ335scDE_9rustscout6search6searchs8_0s_0B7_
FN:381,_RNCNCNvNtCs8tyZ335scDE_9rustscout6search6searchs8_0s0_0B7_
FN:389,_RNCNvNtCs8tyZ335scDE_9rustscout6search6searchs9_0B5_
FNDA:5,_RNvNtCs58HO3RAVCkf_9rustscout6search17is_simple_pattern
FNDA:26,_RNvNtCs58HO3RAVCkf_9rustscout6search18search_file_simple
FNDA:10,_RNvNtCs58HO3RAVCkf_9rustscout6search17search_file_regex
FNDA:6,_RNvNtCs58HO3RAVCkf_9rustscout6search6search
FNDA:0,_RNCNvNtCs58HO3RAVCkf_9rustscout6search18search_file_simple0B5_
FNDA:0,_RNCNvNtCs58HO3RAVCkf_9rustscout6search17search_file_regex0B5_
FNDA:0,_RNCNvNtCs58HO3RAVCkf_9rustscout6search6search0B5_
FNDA:56,_RNCNvNtCs58HO3RAVCkf_9rustscout6search6searchs_0B5_
FNDA:56,_RNCNCNvNtCs58HO3RAVCkf_9rustscout6search6searchs_00B7_
FNDA:51,_RNCNvNtCs58HO3RAVCkf_9rustscout6search6searchs0_0B5_
FNDA:26,_RNCNvNtCs58HO3RAVCkf_9rustscout6search6searchs1_0B5_
FNDA:26,_RNCNvNtCs58HO3RAVCkf_9rustscout6search6searchs2_0B5_
FNDA:26,_RNCNvNtCs58HO3RAVCkf_9rustscout6search6searchs3_0B5_
FNDA:10,_RNCNvNtCs58HO3RAVCkf_9rustscout6search6searchs4_0B5_
FNDA:10,_RNCNvNtCs58HO3RAVCkf_9rustscout6search6searchs5_0B5_
FNDA:10,_RNCNvNtCs58HO3RAVCkf_9rustscout6search6searchs6_0B5_
FNDA:36,_RNCNvNtCs58HO3RAVCkf_9rustscout6search6searchs7_0B5_
FNDA:0,_RNCNvNtCs58HO3RAVCkf_9rustscout6search6searchs8_0B5_
FNDA:0,_RNCNCNvNtCs58HO3RAVCkf_9rustscout6search6searchs8_00B7_
FNDA:0,_RNCNCNvNtCs58HO3RAVCkf_9rustscout6search6searchs8_0s_0B7_
FNDA:0,_RNCNCNvNtCs58HO3RAVCkf_9rustscout6search6searchs8_0s0_0B7_
FNDA:0,_RNCNvNtCs58HO3RAVCkf_9rustscout6search6searchs9_0B5_
FNDA:0,_RNvNtCs8tyZ335scDE_9rustscout6search17is_simple_pattern
FNDA:0,_RNvNtCs8tyZ335scDE_9rustscout6search18search_file_simple
FNDA:0,_RNCNvNtCs8tyZ335scDE_9rustscout6search18search_file_simple0B5_
FNDA:0,_RNvNtCs8tyZ335scDE_9rustscout6search17search_file_regex
FNDA:0,_RNCNvNtCs8tyZ335scDE_9rustscout6search17search_file_regex0B5_
FNDA:0,_RNvNtCs8tyZ335scDE_9rustscout6search6search
FNDA:0,_RNCNvNtCs8tyZ335scDE_9rustscout6search6search0B5_
FNDA:0,_RNCNvNtCs8tyZ335scDE_9rustscout6search6searchs_0B5_
FNDA:0,_RNCNCNvNtCs8tyZ335scDE_9rustscout6search6searchs_00B7_
FNDA:0,_RNCNvNtCs8tyZ335scDE_9rustscout6search6searchs0_0B5_
FNDA:0,_RNCNvNtCs8tyZ335scDE_9rustscout6search6searchs1_0B5_
FNDA:0,_RNCNvNtCs8tyZ335scDE_9rustscout6search6searchs2_0B5_
FNDA:0,_RNCNvNtCs8tyZ335scDE_9rustscout6search6searchs3_0B5_
FNDA:0,_RNCNvNtCs8tyZ335scDE_9rustscout6search6searchs4_0B5_
FNDA:0,_RNCNvNtCs8tyZ335scDE_9rustscout6search6searchs5_0B5_
FNDA:0,_RNCNvNtCs8tyZ335scDE_9rustscout6search6searchs6_0B5_
FNDA:0,_RNCNvNtCs8tyZ335scDE_9rustscout6search6searchs7_0B5_
FNDA:0,_RNCNvNtCs8tyZ335scDE_9rustscout6search6searchs8_0B5_
FNDA:0,_RNCNCNvNtCs8tyZ335scDE_9rustscout6search6searchs8_00B7_
FNDA:0,_RNCNCNvNtCs8tyZ335scDE_9rustscout6search6searchs8_0s_0B7_
FNDA:0,_RNCNCNvNtCs8tyZ335scDE_9rustscout6search6searchs8_0s0_0B7_
FNDA:0,_RNCNvNtCs8tyZ335scDE_9rustscout6search6searchs9_0B5_
FNF:22
FNH:14
DA:126,5
DA:127,5
DA:128,5
DA:130,5
DA:131,0
DA:132,0
DA:133,0
DA:135,5
DA:136,5
DA:155,26
DA:156,26
DA:157,26
DA:158,0
DA:159,0
DA:160,0
DA:161,26
DA:163,26
DA:164,26
DA:165,26
DA:167,7501
DA:168,7501
DA:169,7501
DA:170,2501
DA:171,2501
DA:172,2501
DA:173,2501
DA:174,2501
DA:175,2501
DA:176,2501
DA:177,2501
DA:178,5000
DA:179,7501
DA:180,0
DA:181,0
DA:182,7501
DA:185,26
DA:186,26
DA:187,26
DA:188,26
DA:189,26
DA:190,26
DA:218,10
DA:219,10
DA:220,10
DA:221,0
DA:222,0
DA:223,0
DA:224,10
DA:226,10
DA:227,10
DA:228,10
DA:229,10
DA:230,10
DA:232,3010
DA:233,3000
DA:234,3000
DA:235,1000
DA:236,1000
DA:237,1000
DA:238,1000
DA:239,1000
DA:240,1000
DA:241,1000
DA:242,1000
DA:243,1000
DA:244,1000
DA:245,2000
DA:246,3000
DA:247,0
DA:248,0
DA:249,3000
DA:250,3000
DA:253,10
DA:254,10
DA:255,10
DA:256,10
DA:257,10
DA:258,10
DA:273,6
DA:274,6
DA:276,6
DA:277,1
DA:278,1
DA:279,5
DA:280,5
DA:281,5
DA:282,5
DA:283,1
DA:284,1
DA:286,4
DA:289,5
DA:290,5
DA:291,5
DA:292,5
DA:293,5
DA:295,6
DA:296,1
DA:297,1
DA:300,5
DA:301,5
DA:302,5
DA:303,5
DA:304,5
DA:305,5
DA:306,5
DA:307,5
DA:308,5
DA:309,5
DA:310,36
DA:311,5
DA:312,56
DA:313,51
DA:315,36
DA:316,36
DA:317,36
DA:318,36
DA:321,0
DA:322,0
DA:327,5
DA:328,0
DA:329,0
DA:330,0
DA:331,0
DA:334,5
DA:335,5
DA:336,5
DA:337,5
DA:338,5
DA:339,4
DA:340,4
DA:341,26
DA:342,26
DA:343,26
DA:344,4
DA:345,1
DA:346,1
DA:347,1
DA:348,10
DA:349,10
DA:350,10
DA:351,1
DA:353,0
DA:356,5
DA:357,5
DA:358,5
DA:359,36
DA:360,5
DA:362,5
DA:363,0
DA:364,0
DA:365,0
DA:366,0
DA:368,0
DA:369,0
DA:370,0
DA:371,0
DA:372,0
DA:373,0
DA:374,0
DA:375,0
DA:377,0
DA:379,0
DA:380,0
DA:381,0
DA:382,0
DA:383,0
DA:384,0
DA:385,0
DA:386,0
DA:387,0
DA:388,0
DA:389,0
DA:390,5
DA:392,5
DA:393,0
DA:397,5
DA:398,6
BRF:0
BRH:0
LF:199
LH:142
end_of_record